Certificate:
    Data:
        Version: 3 (0x2)
        Serial Number: 1431266002 (0x554f62d2)
        Signature Algorithm: sha256WithRSAEncryption
        Issuer: C = NG, ST = Lagos, L = Victoria Island, O = NIBSS, OU = System Integration, CN = Oluwasegun Ajibade
        Validity
            Not Before: May 22 08:15:43 2013 GMT
            Not After : Aug 20 08:15:43 2013 GMT
        Subject: C = NG, ST = Lagos, L = Victoria Island, O = NIBSS, OU = System Integration, CN = Oluwasegun Ajibade
        Subject Public Key Info:
            Public Key Algorithm: rsaEncryption
                RSA Public-Key: (2048 bit)
                Modulus:
                    00:9c:bd:8a:3f:06:40:67:c4:90:58:cc:e4:1e:a5:
                    97:00:2c:8a:94:30:59:57:54:6c:49:9d:d4:0d:62:
                    3e:16:a3:e0:c0:41:72:ee:59:c9:df:19:8c:d8:ca:
                    8f:19:a1:11:a7:fc:11:8d:6b:f7:3a:2d:90:61:d6:
                    3a:64:02:99:97:40:11:19:15:61:66:ea:b2:e8:73:
                    b2:df:b5:ce:79:64:b3:cd:f7:e7:c3:9a:b8:85:b5:
                    df:25:79:61:66:75:d1:85:2c:cd:2d:46:24:1f:06:
                    1d:a8:ed:fb:a2:92:2e:b7:7f:0d:ce:2e:dc:94:a3:
                    22:c4:a6:b4:3a:fc:b7:91:93:0f:79:d1:ae:dc:09:
                    08:0a:fa:3f:7a:26:f3:d3:72:0a:5b:a2:08:34:fc:
                    31:cf:71:8c:85:ec:77:1b:80:81:9f:9a:82:9f:3d:
                    4b:99:54:bc:1e:e3:71:5a:47:8f:5a:d8:7e:8d:f3:
                    5a:cb:2b:3b:5a:b3:d9:a6:b2:c0:66:42:94:90:6b:
                    9a:42:2e:1c:b0:ac:4b:95:bf:cb:65:76:98:32:ee:
                    3a:81:04:c6:4e:1d:69:f6:84:08:10:d1:08:70:51:
                    9a:53:4e:99:fc:c7:46:75:0d:d7:c1:ed:cb:b8:9c:
                    ef:3f:ec:29:84:b7:77:dc:2c:3c:60:a8:48:4a:15:
                    ea:49
                Exponent: 65537 (0x10001)
        X509v3 extensions:
            X509v3 Subject Key Identifier: 
                10:B7:01:58:D4:16:49:07:A8:FC:4B:B9:68:09:2E:1C:BF:D1:89:5C
    Signature Algorithm: sha256WithRSAEncryption
         41:43:8a:5d:f1:f7:a9:fe:e4:b5:be:a6:73:18:65:8c:16:e9:
         f6:a2:88:0b:12:13:20:58:e3:54:dc:bd:c4:35:56:2a:ec:43:
         15:95:4d:7b:41:8a:71:68:7b:5c:72:56:02:5b:b4:27:6e:0c:
         4c:05:3e:b1:dc:88:ee:f3:e0:bf:33:29:29:5a:0f:88:3d:06:
         c1:9a:c5:c4:cd:8a:8b:93:fd:dd:c0:19:f1:b3:c7:d2:37:b3:
         77:2e:7a:0c:ac:1e:15:d0:5a:d2:de:10:ce:dd:24:6d:0c:10:
         97:82:35:da:50:2f:3e:81:9a:10:8d:63:3c:3e:fb:9c:1e:8e:
         90:bd:50:ab:19:b8:34:8e:46:c4:c2:6b:bd:2f:97:ea:c5:aa:
         a7:45:d8:d4:74:dc:a9:ff:2a:2b:2d:89:ff:2f:68:97:15:4e:
         07:4d:65:44:40:b6:6f:92:19:bb:d7:00:bf:06:35:2d:76:96:
         10:36:5d:35:36:f7:1c:b1:49:ef:59:9c:75:d4:de:d8:e3:e2:
         db:8e:22:ed:3c:27:09:f9:1f:57:05:af:8f:0c:06:cd:4d:d1:
         0a:8f:ce:35:cc:69:c4:30:c6:74:e9:92:d4:ba:f4:53:ed:41:
         06:c3:d6:04:57:de:be:39:b1:ad:92:3c:d3:fa:b0:a4:df:35:
         0c:a5:e6:91
-----BEGIN CERTIFICATE-----
MIIDozCCAougAwIBAgIEVU9i0jANBgkqhkiG9w0BAQsFADCBgTELMAkGA1UEBhMC
TkcxDjAMBgNVBAgTBUxhZ29zMRgwFgYDVQQHEw9WaWN0b3JpYSBJc2xhbmQxDjAM
BgNVBAoTBU5JQlNTMRswGQYDVQQLExJTeXN0ZW0gSW50ZWdyYXRpb24xGzAZBgNV
BAMTEk9sdXdhc2VndW4gQWppYmFkZTAeFw0xMzA1MjIwODE1NDNaFw0xMzA4MjAw
ODE1NDNaMIGBMQswCQYDVQQGEwJORzEOMAwGA1UECBMFTGFnb3MxGDAWBgNVBAcT
D1ZpY3RvcmlhIElzbGFuZDEOMAwGA1UEChMFTklCU1MxGzAZBgNVBAsTElN5c3Rl
bSBJbnRlZ3JhdGlvbjEbMBkGA1UEAxMST2x1d2FzZWd1biBBamliYWRlMIIBIjAN
BgkqhkiG9w0BAQEFAAOCAQ8AMIIBCgKCAQEAnL2KPwZAZ8SQWMzkHqWXACyKlDBZ
V1RsSZ3UDWI+FqPgwEFy7lnJ3xmM2MqPGaERp/wRjWv3Oi2QYdY6ZAKZl0ARGRVh
Zuqy6HOy37XOeWSzzffnw5q4hbXfJXlhZnXRhSzNLUYkHwYdqO37opIut38Nzi7c
lKMixKa0Ovy3kZMPedGu3AkICvo/eibz03IKW6IINPwxz3GMhex3G4CBn5qCnz1L
mVS8HuNxWkePWth+jfNayys7WrPZprLAZkKUkGuaQi4csKxLlb/LZXaYMu46gQTG
Th1p9oQIENEIcFGaU06Z/MdGdQ3Xwe3LuJzvP+wphLd33Cw8YKhIShXqSQIDAQAB
oyEwHzAdBgNVHQ4EFgQUELcBWNQWSQeo/Eu5aAkuHL/RiVwwDQYJKoZIhvcNAQEL
BQADggEBAEFDil3x96n+5LW+pnMYZYwW6faiiAsSEyBY41TcvcQ1VirsQxWVTXtB
inFoe1xyVgJbtCduDEwFPrHciO7z4L8zKSlaD4g9BsGaxcTNiouT/d3AGfGzx9I3
s3cuegysHhXQWtLeEM7dJG0MEJeCNdpQLz6BmhCNYzw++5wejpC9UKsZuDSORsTC
a70vl+rFqqdF2NR03Kn/Kistif8vaJcVTgdNZURAtm+SGbvXAL8GNS12lhA2XTU2
9xyxSe9ZnHXU3tjj4tuOIu08Jwn5H1cFr48MBs1N0QqPzjXMacQwxnTpktS69FPt
QQbD1gRX3r45sa2SPNP6sKTfNQyl5pE=
-----END CERTIFICATE-----
