Certificate:
    Data:
        Version: 3 (0x2)
        Serial Number:
            7a:f8:8f:48:95:51:af:94:e7:bb:64:c8:9b:4f:78:fd
    Signature Algorithm: sha256WithRSAEncryption
        Issuer: C=GB, ST=Greater Manchester, L=Salford, O=Sectigo Limited, CN=Sectigo RSA Domain Validation Secure Server CA
        Validity
            Not Before: Feb 25 00:00:00 2019 GMT
            Not After : Mar 10 23:59:59 2021 GMT
        Subject: OU=Domain Control Validated, OU=COMODO SSL Wildcard, CN=*.nibss-plc.com.ng
        Subject Public Key Info:
            Public Key Algorithm: rsaEncryption
                Public-Key: (2048 bit)
                Modulus:
                    00:b6:1e:5b:fe:3c:e0:3b:65:91:78:47:58:03:1f:
                    56:b1:13:4e:64:4c:5b:ff:1c:d8:fd:63:a6:ca:65:
                    40:45:6b:bf:8e:71:26:92:26:81:e6:56:05:02:be:
                    75:39:e4:23:4f:1a:34:3b:d4:14:04:b7:0f:9e:58:
                    4a:9d:c3:90:51:08:9d:d6:1b:ee:f6:88:2e:bc:ef:
                    f2:81:dd:ee:f5:a1:1a:fc:90:18:d3:8d:b8:a2:e1:
                    97:65:ed:31:01:3c:2a:68:3b:db:84:a0:13:18:f7:
                    b2:8c:78:9a:c6:68:22:d6:14:23:94:c6:7b:96:da:
                    c5:d6:30:3e:16:97:8d:ff:c1:01:62:0c:70:dc:f1:
                    73:60:75:b0:e7:b6:b1:93:07:35:15:ec:b5:50:16:
                    0e:76:ee:7a:b5:99:ec:fe:cd:fc:bc:d0:2c:34:05:
                    eb:c7:4d:32:e3:5a:cd:4d:93:21:4e:6c:c3:8e:af:
                    ea:48:9d:ff:8d:29:2a:a8:14:92:88:e2:ca:ee:7b:
                    7e:21:a6:9d:1f:fb:88:a0:c8:73:2b:bb:75:bf:4e:
                    d6:b9:7b:ef:1e:c1:ee:eb:a6:5c:d3:54:27:a3:7b:
                    fd:a7:11:37:2d:97:2c:53:db:98:4d:1b:be:46:46:
                    d9:70:c7:99:e6:cd:8b:ed:3e:29:a1:01:f2:56:6a:
                    17:6f
                Exponent: 65537 (0x10001)
        X509v3 extensions:
            X509v3 Authority Key Identifier: 
                keyid:8D:8C:5E:C4:54:AD:8A:E1:77:E9:9B:F9:9B:05:E1:B8:01:8D:61:E1

            X509v3 Subject Key Identifier: 
                1C:72:37:32:74:19:F7:0B:F6:C6:5F:D1:95:81:F5:6F:77:2B:75:34
            X509v3 Key Usage: critical
                Digital Signature, Key Encipherment
            X509v3 Basic Constraints: critical
                CA:FALSE
            X509v3 Extended Key Usage: 
                TLS Web Server Authentication, TLS Web Client Authentication
            X509v3 Certificate Policies: 
                Policy: 1.3.6.1.4.1.6449.1.2.2.7
                  CPS: https://sectigo.com/CPS
                Policy: 2.23.140.1.2.1

            Authority Information Access: 
                CA Issuers - URI:http://crt.sectigo.com/SectigoRSADomainValidationSecureServerCA.crt
                OCSP - URI:http://ocsp.sectigo.com

            X509v3 Subject Alternative Name: 
                DNS:*.nibss-plc.com.ng, DNS:nibss-plc.com.ng
            CT Precertificate SCTs: 
                Signed Certificate Timestamp:
                    Version   : v1(0)
                    Log ID    : BB:D9:DF:BC:1F:8A:71:B5:93:94:23:97:AA:92:7B:47:
                                38:57:95:0A:AB:52:E8:1A:90:96:64:36:8E:1E:D1:85
                    Timestamp : Feb 25 14:31:25.908 2019 GMT
                    Extensions: none
                    Signature : ecdsa-with-SHA256
                                30:45:02:21:00:99:B2:D3:08:98:87:49:EB:60:37:4E:
                                3C:34:DB:81:2D:B0:DE:6F:B1:89:23:35:A3:4D:20:00:
                                FA:07:21:2D:57:02:20:50:32:32:3D:72:2D:47:A8:72:
                                19:CF:FA:59:07:C8:5D:8A:DB:28:0E:5F:2F:44:D1:39:
                                C7:71:20:42:81:29:78
                Signed Certificate Timestamp:
                    Version   : v1(0)
                    Log ID    : 44:94:65:2E:B0:EE:CE:AF:C4:40:07:D8:A8:FE:28:C0:
                                DA:E6:82:BE:D8:CB:31:B5:3F:D3:33:96:B5:B6:81:A8
                    Timestamp : Feb 25 14:31:25.959 2019 GMT
                    Extensions: none
                    Signature : ecdsa-with-SHA256
                                30:44:02:20:36:6F:7F:28:DF:03:14:21:36:EB:78:68:
                                A3:DF:44:84:F6:FD:6C:D1:BF:A0:C0:73:59:45:C3:3D:
                                44:3A:2A:32:02:20:6A:D1:C9:12:3B:9A:F1:E6:29:06:
                                63:B9:CA:DD:BD:B3:40:76:C9:2D:12:5F:4E:B7:08:7F:
                                1A:5D:55:72:B9:D5
                Signed Certificate Timestamp:
                    Version   : v1(0)
                    Log ID    : 5C:DC:43:92:FE:E6:AB:45:44:B1:5E:9A:D4:56:E6:10:
                                37:FB:D5:FA:47:DC:A1:73:94:B2:5E:E6:F6:C7:0E:CA
                    Timestamp : Feb 25 14:31:25.984 2019 GMT
                    Extensions: none
                    Signature : ecdsa-with-SHA256
                                30:45:02:20:7F:78:2D:6B:48:33:3A:92:37:BB:6E:EC:
                                6B:56:2C:72:F6:E3:38:BE:8F:20:03:7A:95:D9:F7:74:
                                3F:C4:A7:1C:02:21:00:D8:51:89:B6:5E:94:72:37:F9:
                                6C:91:CA:A7:EC:2B:3E:7E:F4:5F:BD:5E:DC:BE:85:2B:
                                98:61:11:86:74:05:7F
    Signature Algorithm: sha256WithRSAEncryption
         1c:e2:cf:9c:42:c0:1d:19:6b:90:c1:0d:b2:78:f5:08:a8:54:
         57:18:cd:f9:06:c8:bd:d2:0d:d2:46:08:68:c8:f7:99:a0:d7:
         1b:72:f7:83:55:e9:78:5e:16:43:31:62:9d:9c:51:0a:b9:29:
         ed:13:28:21:e3:fa:22:4a:40:cc:e9:33:8a:d4:41:a5:21:69:
         aa:d6:d2:e5:93:3e:51:ae:9b:f7:eb:6a:b5:1a:0e:a1:cf:f3:
         0d:03:ea:be:33:3e:d8:25:40:87:9b:95:71:b3:bb:7b:7f:15:
         35:e7:95:67:cc:75:9f:8d:00:b9:2d:87:c6:6e:c9:19:d8:15:
         93:b9:81:4b:2a:2f:04:d0:58:11:54:5c:b2:fe:57:97:12:3f:
         50:3f:e8:99:c0:93:5f:ce:01:e7:1a:ac:2a:76:0d:4e:75:76:
         70:11:d7:26:41:f2:f1:ad:dd:98:f4:5f:6b:c7:90:4c:11:da:
         2b:33:15:9c:f5:45:84:e3:9f:7e:3b:e1:fc:3e:66:24:db:73:
         68:d6:e2:51:fc:40:29:5d:42:d8:fc:b9:04:a3:5c:f0:3d:25:
         20:d4:f2:df:1b:fe:7e:12:99:2d:2a:77:81:dd:0c:7d:68:bb:
         d7:46:7b:5d:e5:c4:01:a7:fa:66:08:21:62:c3:9e:b8:86:10:
         07:d1:04:d2
-----BEGIN CERTIFICATE-----
MIIGfzCCBWegAwIBAgIQeviPSJVRr5Tnu2TIm094/TANBgkqhkiG9w0BAQsFADCB
jzELMAkGA1UEBhMCR0IxGzAZBgNVBAgTEkdyZWF0ZXIgTWFuY2hlc3RlcjEQMA4G
A1UEBxMHU2FsZm9yZDEYMBYGA1UEChMPU2VjdGlnbyBMaW1pdGVkMTcwNQYDVQQD
Ey5TZWN0aWdvIFJTQSBEb21haW4gVmFsaWRhdGlvbiBTZWN1cmUgU2VydmVyIENB
MB4XDTE5MDIyNTAwMDAwMFoXDTIxMDMxMDIzNTk1OVowXjEhMB8GA1UECxMYRG9t
YWluIENvbnRyb2wgVmFsaWRhdGVkMRwwGgYDVQQLExNDT01PRE8gU1NMIFdpbGRj
YXJkMRswGQYDVQQDDBIqLm5pYnNzLXBsYy5jb20ubmcwggEiMA0GCSqGSIb3DQEB
AQUAA4IBDwAwggEKAoIBAQC2Hlv+POA7ZZF4R1gDH1axE05kTFv/HNj9Y6bKZUBF
a7+OcSaSJoHmVgUCvnU55CNPGjQ71BQEtw+eWEqdw5BRCJ3WG+72iC687/KB3e71
oRr8kBjTjbii4Zdl7TEBPCpoO9uEoBMY97KMeJrGaCLWFCOUxnuW2sXWMD4Wl43/
wQFiDHDc8XNgdbDntrGTBzUV7LVQFg527nq1mez+zfy80Cw0BevHTTLjWs1NkyFO
bMOOr+pInf+NKSqoFJKI4srue34hpp0f+4igyHMru3W/Tta5e+8ewe7rplzTVCej
e/2nETctlyxT25hNG75GRtlwx5nmzYvtPimhAfJWahdvAgMBAAGjggMFMIIDATAf
BgNVHSMEGDAWgBSNjF7EVK2K4Xfpm/mbBeG4AY1h4TAdBgNVHQ4EFgQUHHI3MnQZ
9wv2xl/RlYH1b3crdTQwDgYDVR0PAQH/BAQDAgWgMAwGA1UdEwEB/wQCMAAwHQYD
VR0lBBYwFAYIKwYBBQUHAwEGCCsGAQUFBwMCMEkGA1UdIARCMEAwNAYLKwYBBAGy
MQECAgcwJTAjBggrBgEFBQcCARYXaHR0cHM6Ly9zZWN0aWdvLmNvbS9DUFMwCAYG
Z4EMAQIBMIGEBggrBgEFBQcBAQR4MHYwTwYIKwYBBQUHMAKGQ2h0dHA6Ly9jcnQu
c2VjdGlnby5jb20vU2VjdGlnb1JTQURvbWFpblZhbGlkYXRpb25TZWN1cmVTZXJ2
ZXJDQS5jcnQwIwYIKwYBBQUHMAGGF2h0dHA6Ly9vY3NwLnNlY3RpZ28uY29tMC8G
A1UdEQQoMCaCEioubmlic3MtcGxjLmNvbS5uZ4IQbmlic3MtcGxjLmNvbS5uZzCC
AX0GCisGAQQB1nkCBAIEggFtBIIBaQFnAHYAu9nfvB+KcbWTlCOXqpJ7RzhXlQqr
UugakJZkNo4e0YUAAAFpJRFR1AAABAMARzBFAiEAmbLTCJiHSetgN048NNuBLbDe
b7GJIzWjTSAA+gchLVcCIFAyMj1yLUeochnP+lkHyF2K2ygOXy9E0TnHcSBCgSl4
AHUARJRlLrDuzq/EQAfYqP4owNrmgr7YyzG1P9MzlrW2gagAAAFpJRFSBwAABAMA
RjBEAiA2b38o3wMUITbreGij30SE9v1s0b+gwHNZRcM9RDoqMgIgatHJEjua8eYp
BmO5yt29s0B2yS0SX063CH8aXVVyudUAdgBc3EOS/uarRUSxXprUVuYQN/vV+kfc
oXOUsl7m9scOygAAAWklEVIgAAAEAwBHMEUCIH94LWtIMzqSN7tu7GtWLHL24zi+
jyADepXZ93Q/xKccAiEA2FGJtl6Ucjf5bJHKp+wrPn70X71e3L6FK5hhEYZ0BX8w
DQYJKoZIhvcNAQELBQADggEBABziz5xCwB0Za5DBDbJ49QioVFcYzfkGyL3SDdJG
CGjI95mg1xty94NV6XheFkMxYp2cUQq5Ke0TKCHj+iJKQMzpM4rUQaUhaarW0uWT
PlGum/frarUaDqHP8w0D6r4zPtglQIeblXGzu3t/FTXnlWfMdZ+NALkth8ZuyRnY
FZO5gUsqLwTQWBFUXLL+V5cSP1A/6JnAk1/OAecarCp2DU51dnAR1yZB8vGt3Zj0
X2vHkEwR2iszFZz1RYTjn3474fw+ZiTbc2jW4lH8QCldQtj8uQSjXPA9JSDU8t8b
/n4SmS0qd4HdDH1ou9dGe13lxAGn+mYIIWLDnriGEAfRBNI=
-----END CERTIFICATE-----
